; Function Attrs: mustprogress uwtable
define dso_local void @_ZNK5vcpkg11MessageLine9to_stringERNSt7__cxx1112basic_stringIcSt11char_traitsIcESaIcEEE(ptr noundef nonnull readonly align 8 captures(none) dereferenceable(24) %0, ptr noundef nonnull align 8 dereferenceable(32) %1) local_unnamed_addr #0 align 2 {
  %3 = load ptr, ptr %0, align 8, !tbaa !26
  %4 = getelementptr inbounds nuw i8, ptr %0, i64 8
  %5 = load ptr, ptr %4, align 8, !tbaa !26
  %.not8 = icmp eq ptr %3, %5
  br i1 %.not8, label %._crit_edge, label %.lr.ph

.lr.ph:                                           ; preds = %2
  %6 = getelementptr inbounds nuw i8, ptr %1, i64 8
  br label %7

._crit_edge:                                      ; preds = %_ZNSt7__cxx1112basic_stringIcSt11char_traitsIcESaIcEE6appendERKS4_.exit, %2
  ret void

7:                                                ; preds = %.lr.ph, %_ZNSt7__cxx1112basic_stringIcSt11char_traitsIcESaIcEE6appendERKS4_.exit
  %.sroa.05.09 = phi ptr [ %3, %.lr.ph ], [ %17, %_ZNSt7__cxx1112basic_stringIcSt11char_traitsIcESaIcEE6appendERKS4_.exit ]
  %8 = getelementptr inbounds nuw i8, ptr %.sroa.05.09, i64 16
  %9 = load i64, ptr %8, align 8, !tbaa !16
  %10 = load i64, ptr %6, align 8, !tbaa !16
  %11 = sub i64 4611686018427387903, %10
  %12 = icmp ult i64 %11, %9
  br i1 %12, label %13, label %_ZNSt7__cxx1112basic_stringIcSt11char_traitsIcESaIcEE6appendERKS4_.exit

13:                                               ; preds = %7
  tail call void @_ZSt20__throw_length_errorPKc(ptr noundef nonnull @.str.2) #23
  unreachable

_ZNSt7__cxx1112basic_stringIcSt11char_traitsIcESaIcEE6appendERKS4_.exit: ; preds = %7
  %14 = getelementptr inbounds nuw i8, ptr %.sroa.05.09, i64 8
  %15 = load ptr, ptr %14, align 8, !tbaa !15
  %16 = tail call noundef nonnull align 8 dereferenceable(32) ptr @_ZNSt7__cxx1112basic_stringIcSt11char_traitsIcESaIcEE9_M_appendEPKcm(ptr noundef nonnull align 8 dereferenceable(32) %1, ptr noundef %15, i64 noundef %9)
  %17 = getelementptr inbounds nuw i8, ptr %.sroa.05.09, i64 40
  %.not = icmp eq ptr %17, %5
  br i1 %.not, label %._crit_edge, label %7
}